target datalayout = "e-m:e-p270:32:32-p271:32:32-p272:64:64-i64:64-i128:128-f80:128-n8:16:32:64-S128"
target triple = "x86_64-pc-linux-gnu"

%struct.mbedtls_mpi = type { i32, i64, ptr }

; Function Attrs: mustprogress nounwind uwtable
define internal noundef i64 @_ZL26mpi_uint_bigendian_to_hostm(i64 noundef %0) #0 {
  %2 = alloca i64, align 8
  store i64 %0, ptr %2, align 8, !tbaa !16
  %3 = load i64, ptr %2, align 8, !tbaa !16
  %4 = call i64 @llvm.bswap.i64(i64 %3)
  ret i64 %4
}

; Function Attrs: mustprogress uwtable
define internal void @_ZL21mpi_bigendian_to_hostPmm(ptr noundef %0, i64 noundef %1) #1 {
  %3 = alloca ptr, align 8
  %4 = alloca i64, align 8
  %5 = alloca ptr, align 8
  %6 = alloca ptr, align 8
  %7 = alloca i32, align 4
  %8 = alloca i64, align 8
  store ptr %0, ptr %3, align 8, !tbaa !15
  store i64 %1, ptr %4, align 8, !tbaa !16
  call void @llvm.lifetime.start.p0(i64 8, ptr %5) #10
  call void @llvm.lifetime.start.p0(i64 8, ptr %6) #10
  %9 = load i64, ptr %4, align 8, !tbaa !16
  %10 = icmp eq i64 %9, 0
  br i1 %10, label %11, label %12

11:                                               ; preds = %2
  store i32 1, ptr %7, align 4
  br label %38

12:                                               ; preds = %2
  %13 = load ptr, ptr %3, align 8, !tbaa !15
  store ptr %13, ptr %5, align 8, !tbaa !15
  %14 = load ptr, ptr %3, align 8, !tbaa !15
  %15 = load i64, ptr %4, align 8, !tbaa !16
  %16 = sub i64 %15, 1
  %17 = getelementptr inbounds nuw i64, ptr %14, i64 %16
  store ptr %17, ptr %6, align 8, !tbaa !15
  br label %18

18:                                               ; preds = %32, %12
  %19 = load ptr, ptr %5, align 8, !tbaa !15
  %20 = load ptr, ptr %6, align 8, !tbaa !15
  %21 = icmp ule ptr %19, %20
  br i1 %21, label %22, label %37

22:                                               ; preds = %18
  call void @llvm.lifetime.start.p0(i64 8, ptr %8) #10
  %23 = load ptr, ptr %5, align 8, !tbaa !15
  %24 = load i64, ptr %23, align 8, !tbaa !16
  %25 = call noundef i64 @_ZL26mpi_uint_bigendian_to_hostm(i64 noundef %24)
  store i64 %25, ptr %8, align 8, !tbaa !16
  %26 = load ptr, ptr %6, align 8, !tbaa !15
  %27 = load i64, ptr %26, align 8, !tbaa !16
  %28 = call noundef i64 @_ZL26mpi_uint_bigendian_to_hostm(i64 noundef %27)
  %29 = load ptr, ptr %5, align 8, !tbaa !15
  store i64 %28, ptr %29, align 8, !tbaa !16
  %30 = load i64, ptr %8, align 8, !tbaa !16
  %31 = load ptr, ptr %6, align 8, !tbaa !15
  store i64 %30, ptr %31, align 8, !tbaa !16
  call void @llvm.lifetime.end.p0(i64 8, ptr %8) #10
  br label %32

32:                                               ; preds = %22
  %33 = load ptr, ptr %5, align 8, !tbaa !15
  %34 = getelementptr inbounds nuw i64, ptr %33, i32 1
  store ptr %34, ptr %5, align 8, !tbaa !15
  %35 = load ptr, ptr %6, align 8, !tbaa !15
  %36 = getelementptr inbounds i64, ptr %35, i32 -1
  store ptr %36, ptr %6, align 8, !tbaa !15
  br label %18, !llvm.loop !37

37:                                               ; preds = %18
  store i32 0, ptr %7, align 4
  br label %38

38:                                               ; preds = %37, %11
  call void @llvm.lifetime.end.p0(i64 8, ptr %6) #10
  call void @llvm.lifetime.end.p0(i64 8, ptr %5) #10
  %39 = load i32, ptr %7, align 4
  switch i32 %39, label %41 [
    i32 0, label %40
    i32 1, label %40
  ]

40:                                               ; preds = %38, %38
  ret void

41:                                               ; preds = %38
  unreachable
}

; Function Attrs: mustprogress uwtable
define internal noundef i32 @_ZL24mpi_fill_random_internalP11mbedtls_mpimPFiPvPhmES1_(ptr noundef %0, i64 noundef %1, ptr noundef %2, ptr noundef %3) #1 {
  %5 = alloca i32, align 4
  %6 = alloca ptr, align 8
  %7 = alloca i64, align 8
  %8 = alloca ptr, align 8
  %9 = alloca ptr, align 8
  %10 = alloca i32, align 4
  %11 = alloca i64, align 8
  %12 = alloca i64, align 8
  %13 = alloca i32, align 4
  store ptr %0, ptr %6, align 8, !tbaa !3
  store i64 %1, ptr %7, align 8, !tbaa !16
  store ptr %2, ptr %8, align 8, !tbaa !85
  store ptr %3, ptr %9, align 8, !tbaa !85
  call void @llvm.lifetime.start.p0(i64 4, ptr %10) #10
  store i32 -110, ptr %10, align 4, !tbaa !19
  call void @llvm.lifetime.start.p0(i64 8, ptr %11) #10
  %14 = load i64, ptr %7, align 8, !tbaa !16
  %15 = udiv i64 %14, 8
  %16 = load i64, ptr %7, align 8, !tbaa !16
  %17 = urem i64 %16, 8
  %18 = icmp ne i64 %17, 0
  %19 = zext i1 %18 to i64
  %20 = add i64 %15, %19
  store i64 %20, ptr %11, align 8, !tbaa !16
  call void @llvm.lifetime.start.p0(i64 8, ptr %12) #10
  %21 = load i64, ptr %11, align 8, !tbaa !16
  %22 = mul i64 %21, 8
  %23 = load i64, ptr %7, align 8, !tbaa !16
  %24 = sub i64 %22, %23
  store i64 %24, ptr %12, align 8, !tbaa !16
  %25 = load ptr, ptr %6, align 8, !tbaa !3
  %26 = getelementptr inbounds nuw %struct.mbedtls_mpi, ptr %25, i32 0, i32 1
  %27 = load i64, ptr %26, align 8, !tbaa !13
  %28 = load i64, ptr %11, align 8, !tbaa !16
  %29 = icmp ult i64 %27, %28
  br i1 %29, label %30, label %31

30:                                               ; preds = %4
  store i32 -4, ptr %5, align 4
  store i32 1, ptr %13, align 4
  br label %69

31:                                               ; preds = %4
  %32 = load ptr, ptr %6, align 8, !tbaa !3
  %33 = getelementptr inbounds nuw %struct.mbedtls_mpi, ptr %32, i32 0, i32 2
  %34 = load ptr, ptr %33, align 8, !tbaa !14
  %35 = load i64, ptr %12, align 8, !tbaa !16
  call void @llvm.memset.p0.i64(ptr align 8 %34, i8 0, i64 %35, i1 false)
  %36 = load ptr, ptr %6, align 8, !tbaa !3
  %37 = getelementptr inbounds nuw %struct.mbedtls_mpi, ptr %36, i32 0, i32 2
  %38 = load ptr, ptr %37, align 8, !tbaa !14
  %39 = load i64, ptr %11, align 8, !tbaa !16
  %40 = mul i64 %39, 8
  %41 = getelementptr inbounds nuw i8, ptr %38, i64 %40
  %42 = load ptr, ptr %6, align 8, !tbaa !3
  %43 = getelementptr inbounds nuw %struct.mbedtls_mpi, ptr %42, i32 0, i32 1
  %44 = load i64, ptr %43, align 8, !tbaa !13
  %45 = load i64, ptr %11, align 8, !tbaa !16
  %46 = sub i64 %44, %45
  %47 = mul i64 %46, 8
  call void @llvm.memset.p0.i64(ptr align 1 %41, i8 0, i64 %47, i1 false)
  br label %48

48:                                               ; preds = %31
  %49 = load ptr, ptr %8, align 8, !tbaa !85
  %50 = load ptr, ptr %9, align 8, !tbaa !85
  %51 = load ptr, ptr %6, align 8, !tbaa !3
  %52 = getelementptr inbounds nuw %struct.mbedtls_mpi, ptr %51, i32 0, i32 2
  %53 = load ptr, ptr %52, align 8, !tbaa !14
  %54 = load i64, ptr %12, align 8, !tbaa !16
  %55 = getelementptr inbounds nuw i8, ptr %53, i64 %54
  %56 = load i64, ptr %7, align 8, !tbaa !16
  %57 = call noundef i32 %49(ptr noundef %50, ptr noundef %55, i64 noundef %56)
  store i32 %57, ptr %10, align 4, !tbaa !19
  %58 = icmp ne i32 %57, 0
  br i1 %58, label %59, label %60

59:                                               ; preds = %48
  br label %67

60:                                               ; preds = %48
  br label %61

61:                                               ; preds = %60
  br label %62

62:                                               ; preds = %61
  %63 = load ptr, ptr %6, align 8, !tbaa !3
  %64 = getelementptr inbounds nuw %struct.mbedtls_mpi, ptr %63, i32 0, i32 2
  %65 = load ptr, ptr %64, align 8, !tbaa !14
  %66 = load i64, ptr %11, align 8, !tbaa !16
  call void @_ZL21mpi_bigendian_to_hostPmm(ptr noundef %65, i64 noundef %66)
  br label %67

67:                                               ; preds = %62, %59
  %68 = load i32, ptr %10, align 4, !tbaa !19
  store i32 %68, ptr %5, align 4
  store i32 1, ptr %13, align 4
  br label %69

69:                                               ; preds = %67, %30
  call void @llvm.lifetime.end.p0(i64 8, ptr %12) #10
  call void @llvm.lifetime.end.p0(i64 8, ptr %11) #10
  call void @llvm.lifetime.end.p0(i64 4, ptr %10) #10
  %70 = load i32, ptr %5, align 4
  ret i32 %70
}

; Function Attrs: mustprogress uwtable
define hidden i32 @mbedtls_mpi_fill_random(ptr noundef %0, i64 noundef %1, ptr noundef %2, ptr noundef %3) #1 {
  %5 = alloca i32, align 4
  %6 = alloca ptr, align 8
  %7 = alloca i64, align 8
  %8 = alloca ptr, align 8
  %9 = alloca ptr, align 8
  %10 = alloca i32, align 4
  %11 = alloca i64, align 8
  %12 = alloca i32, align 4
  store ptr %0, ptr %6, align 8, !tbaa !3
  store i64 %1, ptr %7, align 8, !tbaa !16
  store ptr %2, ptr %8, align 8, !tbaa !85
  store ptr %3, ptr %9, align 8, !tbaa !85
  call void @llvm.lifetime.start.p0(i64 4, ptr %10) #10
  store i32 -110, ptr %10, align 4, !tbaa !19
  call void @llvm.lifetime.start.p0(i64 8, ptr %11) #10
  %13 = load i64, ptr %7, align 8, !tbaa !16
  %14 = udiv i64 %13, 8
  %15 = load i64, ptr %7, align 8, !tbaa !16
  %16 = urem i64 %15, 8
  %17 = icmp ne i64 %16, 0
  %18 = zext i1 %17 to i64
  %19 = add i64 %14, %18
  store i64 %19, ptr %11, align 8, !tbaa !16
  br label %20

20:                                               ; preds = %4
  br label %21

21:                                               ; preds = %20
  br label %22

22:                                               ; preds = %21
  br label %23

23:                                               ; preds = %22
  br label %24

24:                                               ; preds = %23
  br label %25

25:                                               ; preds = %24
  br label %26

26:                                               ; preds = %25
  %27 = load ptr, ptr %6, align 8, !tbaa !3
  %28 = load i64, ptr %11, align 8, !tbaa !16
  %29 = call noundef i32 @_ZL24mbedtls_mpi_resize_clearP11mbedtls_mpim(ptr noundef %27, i64 noundef %28)
  store i32 %29, ptr %10, align 4, !tbaa !19
  %30 = icmp ne i32 %29, 0
  br i1 %30, label %31, label %32

31:                                               ; preds = %26
  br label %44

32:                                               ; preds = %26
  br label %33

33:                                               ; preds = %32
  br label %34

34:                                               ; preds = %33
  %35 = load i64, ptr %7, align 8, !tbaa !16
  %36 = icmp eq i64 %35, 0
  br i1 %36, label %37, label %38

37:                                               ; preds = %34
  store i32 0, ptr %5, align 4
  store i32 1, ptr %12, align 4
  br label %46

38:                                               ; preds = %34
  %39 = load ptr, ptr %6, align 8, !tbaa !3
  %40 = load i64, ptr %7, align 8, !tbaa !16
  %41 = load ptr, ptr %8, align 8, !tbaa !85
  %42 = load ptr, ptr %9, align 8, !tbaa !85
  %43 = call noundef i32 @_ZL24mpi_fill_random_internalP11mbedtls_mpimPFiPvPhmES1_(ptr noundef %39, i64 noundef %40, ptr noundef %41, ptr noundef %42)
  store i32 %43, ptr %10, align 4, !tbaa !19
  br label %44

44:                                               ; preds = %38, %31
  %45 = load i32, ptr %10, align 4, !tbaa !19
  store i32 %45, ptr %5, align 4
  store i32 1, ptr %12, align 4
  br label %46

46:                                               ; preds = %44, %37
  call void @llvm.lifetime.end.p0(i64 8, ptr %11) #10
  call void @llvm.lifetime.end.p0(i64 4, ptr %10) #10
  %47 = load i32, ptr %5, align 4
  ret i32 %47
}