; Function Attrs: mustprogress uwtable
define hidden noundef i32 @mbedtls_mpi_fill_random(ptr noundef captures(address_is_null) %0, i64 noundef %1, ptr noundef readonly captures(none) %2, ptr noundef %3) local_unnamed_addr #1 {
  %5 = lshr i64 %1, 3
  %6 = and i64 %1, 7
  %7 = icmp ne i64 %6, 0
  %8 = zext i1 %7 to i64
  %9 = add nuw nsw i64 %5, %8
  %10 = tail call fastcc noundef i32 @_ZL24mbedtls_mpi_resize_clearP11mbedtls_mpim(ptr noundef %0, i64 noundef %9)
  %.not = icmp eq i32 %10, 0
  br i1 %.not, label %11, label %_ZL24mpi_fill_random_internalP11mbedtls_mpimPFiPvPhmES1_.exit

11:                                               ; preds = %4
  %12 = icmp eq i64 %1, 0
  br i1 %12, label %_ZL24mpi_fill_random_internalP11mbedtls_mpimPFiPvPhmES1_.exit, label %13

13:                                               ; preds = %11
  %14 = getelementptr inbounds nuw i8, ptr %0, i64 8
  %15 = load i64, ptr %14, align 8, !tbaa !12
  %16 = icmp ult i64 %15, %9
  br i1 %16, label %_ZL24mpi_fill_random_internalP11mbedtls_mpimPFiPvPhmES1_.exit, label %17

17:                                               ; preds = %13
  %18 = shl i64 %9, 3
  %19 = sub i64 %18, %1
  %20 = getelementptr inbounds nuw i8, ptr %0, i64 16
  %21 = load ptr, ptr %20, align 8, !tbaa !11
  tail call void @llvm.memset.p0.i64(ptr align 8 %21, i8 0, i64 %19, i1 false)
  %22 = load ptr, ptr %20, align 8, !tbaa !11
  %23 = getelementptr inbounds nuw i8, ptr %22, i64 %18
  %24 = load i64, ptr %14, align 8, !tbaa !12
  %25 = sub i64 %24, %9
  %26 = shl i64 %25, 3
  tail call void @llvm.memset.p0.i64(ptr align 1 %23, i8 0, i64 %26, i1 false)
  %27 = load ptr, ptr %20, align 8, !tbaa !11
  %28 = getelementptr inbounds nuw i8, ptr %27, i64 %19
  %29 = tail call noundef i32 %2(ptr noundef %3, ptr noundef %28, i64 noundef %1)
  %.not.i = icmp eq i32 %29, 0
  br i1 %.not.i, label %30, label %_ZL24mpi_fill_random_internalP11mbedtls_mpimPFiPvPhmES1_.exit

30:                                               ; preds = %17
  %31 = load ptr, ptr %20, align 8, !tbaa !11
  %32 = icmp eq i64 %9, 0
  %33 = getelementptr i64, ptr %31, i64 %9
  %.01214.i.i = getelementptr i8, ptr %33, i64 -8
  %.not15.i.i = icmp ugt ptr %31, %.01214.i.i
  %or.cond.i.i = or i1 %32, %.not15.i.i
  br i1 %or.cond.i.i, label %_ZL24mpi_fill_random_internalP11mbedtls_mpimPFiPvPhmES1_.exit, label %.lr.ph.i.i

.lr.ph.i.i:                                       ; preds = %30, %.lr.ph.i.i
  %.01217.i.i = phi ptr [ %.012.i.i, %.lr.ph.i.i ], [ %.01214.i.i, %30 ]
  %.016.i.i = phi ptr [ %38, %.lr.ph.i.i ], [ %31, %30 ]
  %34 = load i64, ptr %.016.i.i, align 8, !tbaa !13
  %35 = tail call noundef i64 @llvm.bswap.i64(i64 %34)
  %36 = load i64, ptr %.01217.i.i, align 8, !tbaa !13
  %37 = tail call noundef i64 @llvm.bswap.i64(i64 %36)
  store i64 %37, ptr %.016.i.i, align 8, !tbaa !13
  store i64 %35, ptr %.01217.i.i, align 8, !tbaa !13
  %38 = getelementptr inbounds nuw i8, ptr %.016.i.i, i64 8
  %.012.i.i = getelementptr i8, ptr %.01217.i.i, i64 -8
  %.not.i.i = icmp ugt ptr %38, %.012.i.i
  br i1 %.not.i.i, label %_ZL24mpi_fill_random_internalP11mbedtls_mpimPFiPvPhmES1_.exit, label %.lr.ph.i.i, !llvm.loop !31

_ZL24mpi_fill_random_internalP11mbedtls_mpimPFiPvPhmES1_.exit: ; preds = %.lr.ph.i.i, %30, %17, %13, %4, %11
  %.0 = phi i32 [ 0, %11 ], [ %10, %4 ], [ -4, %13 ], [ %29, %17 ], [ 0, %30 ], [ 0, %.lr.ph.i.i ]
  ret i32 %.0
}